(dp0
Vgeometry
p1
(dp2
Vlocation
p3
(dp4
Vlat
p5
F49.5432608
sVlng
p6
F5.9262592
ssVviewport
p7
(dp8
Vnortheast
p9
(dp10
Vlat
p11
F49.5446097802915
sVlng
p12
F5.927608180291502
ssVsouthwest
p13
(dp14
Vlat
p15
F49.5419118197085
sVlng
p16
F5.924910219708497
sssVlocation_type
p17
VGEOMETRIC_CENTER
p18
ssVaddress_components
p19
(lp20
(dp21
Vlong_name
p22
VSanem
p23
sVtypes
p24
(lp25
Vlocality
p26
aVpolitical
p27
asVshort_name
p28
VSanem
p29
sa(dp30
Vlong_name
p31
VLuxembourg
p32
sVtypes
p33
(lp34
Vcountry
p35
aVpolitical
p36
asVshort_name
p37
VLU
p38
sa(dp39
Vlong_name
p40
V4992
p41
sVtypes
p42
(lp43
Vpostal_code
p44
asVshort_name
p45
V4992
p46
sasVplace_id
p47
VChIJrZpdh2S16kcR7OZ2LpYjeSs
p48
sVformatted_address
p49
VChateau de sanem, 4992 Sanem, Luxembourg
p50
sVtypes
p51
(lp52
Vestablishment
p53
aVpoint_of_interest
p54
as.