(dp0
Vgeometry
p1
(dp2
Vlocation_type
p3
VROOFTOP
p4
sVbounds
p5
(dp6
Vnortheast
p7
(dp8
Vlat
p9
F43.5623189
sVlng
p10
F1.4682677
ssVsouthwest
p11
(dp12
Vlat
p13
F43.5615688
sVlng
p14
F1.4675546
sssVviewport
p15
(dp16
Vnortheast
p17
(dp18
Vlat
p19
F43.5632928302915
sVlng
p20
F1.469260130291502
ssVsouthwest
p21
(dp22
Vlat
p23
F43.56059486970851
sVlng
p24
F1.466562169708498
sssVlocation
p25
(dp26
Vlat
p27
F43.5617391
sVlng
p28
F1.4680172
sssVaddress_components
p29
(lp30
(dp31
Vlong_name
p32
VI.R.I.T.
p33
sVtypes
p34
(lp35
Vpremise
p36
asVshort_name
p37
VI.R.I.T.
p38
sa(dp39
Vlong_name
p40
VToulouse
p41
sVtypes
p42
(lp43
Vlocality
p44
aVpolitical
p45
asVshort_name
p46
VToulouse
p47
sa(dp48
Vlong_name
p49
VHaute-Garonne
p50
sVtypes
p51
(lp52
Vadministrative_area_level_2
p53
aVpolitical
p54
asVshort_name
p55
VHaute-Garonne
p56
sa(dp57
Vlong_name
p58
VOccitanie
p59
sVtypes
p60
(lp61
Vadministrative_area_level_1
p62
aVpolitical
p63
asVshort_name
p64
VOccitanie
p65
sa(dp66
Vlong_name
p67
VFrance
p68
sVtypes
p69
(lp70
Vcountry
p71
aVpolitical
p72
asVshort_name
p73
VFR
p74
sa(dp75
Vlong_name
p76
V31400
p77
sVtypes
p78
(lp79
Vpostal_code
p80
asVshort_name
p81
V31400
p82
sasVplace_id
p83
VChIJc8-FXju8rhIRCXMipkavLkg
p84
sVformatted_address
p85
VI.R.I.T., 31400 Toulouse, France
p86
sVtypes
p87
(lp88
Vpremise
p89
as.