(dp0
Vgeometry
p1
(dp2
Vlocation
p3
(dp4
Vlat
p5
F48.1159299
sVlng
p6
F-1.67296
ssVviewport
p7
(dp8
Vnortheast
p9
(dp10
Vlat
p11
F48.1172788802915
sVlng
p12
F-1.671611019708498
ssVsouthwest
p13
(dp14
Vlat
p15
F48.1145809197085
sVlng
p16
F-1.674308980291502
sssVlocation_type
p17
VGEOMETRIC_CENTER
p18
ssVaddress_components
p19
(lp20
(dp21
Vlong_name
p22
VRue du Thabor
p23
sVtypes
p24
(lp25
Vroute
p26
asVshort_name
p27
VRue du Thabor
p28
sa(dp29
Vlong_name
p30
VRennes
p31
sVtypes
p32
(lp33
Vlocality
p34
aVpolitical
p35
asVshort_name
p36
VRennes
p37
sa(dp38
Vlong_name
p39
VIlle-et-Vilaine
p40
sVtypes
p41
(lp42
Vadministrative_area_level_2
p43
aVpolitical
p44
asVshort_name
p45
VIlle-et-Vilaine
p46
sa(dp47
Vlong_name
p48
VBretagne
p49
sVtypes
p50
(lp51
Vadministrative_area_level_1
p52
aVpolitical
p53
asVshort_name
p54
VBretagne
p55
sa(dp56
Vlong_name
p57
VFrance
p58
sVtypes
p59
(lp60
Vcountry
p61
aVpolitical
p62
asVshort_name
p63
VFR
p64
sa(dp65
Vlong_name
p66
V35000
p67
sVtypes
p68
(lp69
Vpostal_code
p70
asVshort_name
p71
V35000
p72
sasVplace_id
p73
VChIJEyAJ-kjeDkgRi1H-TaBDLjo
p74
sVformatted_address
p75
VRue du Thabor, 35000 Rennes, France
p76
sVtypes
p77
(lp78
Vestablishment
p79
aVpoint_of_interest
p80
aVuniversity
p81
as.