(dp0
Vgeometry
p1
(dp2
Vlocation
p3
(dp4
Vlat
p5
F43.712207
sVlng
p6
F10.405946
ssVviewport
p7
(dp8
Vnortheast
p9
(dp10
Vlat
p11
F43.7135559802915
sVlng
p12
F10.4072949802915
ssVsouthwest
p13
(dp14
Vlat
p15
F43.7108580197085
sVlng
p16
F10.4045970197085
sssVlocation_type
p17
VROOFTOP
p18
ssVformatted_address
p19
VVia Giovanni Bovio, 19, 56125 Pisa PI, Italie
p20
sVplace_id
p21
VChIJz6N9WJeR1RIR7p5evj2s_PE
p22
sVaddress_components
p23
(lp24
(dp25
Vlong_name
p26
V19
p27
sVtypes
p28
(lp29
Vstreet_number
p30
asVshort_name
p31
V19
p32
sa(dp33
Vlong_name
p34
VVia Giovanni Bovio
p35
sVtypes
p36
(lp37
Vroute
p38
asVshort_name
p39
VVia Giovanni Bovio
p40
sa(dp41
Vlong_name
p42
VPisa
p43
sVtypes
p44
(lp45
Vlocality
p46
aVpolitical
p47
asVshort_name
p48
VPisa
p49
sa(dp50
Vlong_name
p51
VPisa
p52
sVtypes
p53
(lp54
Vadministrative_area_level_3
p55
aVpolitical
p56
asVshort_name
p57
VPisa
p58
sa(dp59
Vlong_name
p60
VProvincia di Pisa
p61
sVtypes
p62
(lp63
Vadministrative_area_level_2
p64
aVpolitical
p65
asVshort_name
p66
VPI
p67
sa(dp68
Vlong_name
p69
VToscana
p70
sVtypes
p71
(lp72
Vadministrative_area_level_1
p73
aVpolitical
p74
asVshort_name
p75
VToscana
p76
sa(dp77
Vlong_name
p78
VItalie
p79
sVtypes
p80
(lp81
Vcountry
p82
aVpolitical
p83
asVshort_name
p84
VIT
p85
sa(dp86
Vlong_name
p87
V56125
p88
sVtypes
p89
(lp90
Vpostal_code
p91
asVshort_name
p92
V56125
p93
sasVpartial_match
p94
I01
sVtypes
p95
(lp96
Vestablishment
p97
aVhealth
p98
aVpoint_of_interest
p99
as.