(dp0
Vgeometry
p1
(dp2
Vlocation
p3
(dp4
Vlat
p5
F50.638053
sVlng
p6
F3.0712393
ssVviewport
p7
(dp8
Vnortheast
p9
(dp10
Vlat
p11
F50.6394019802915
sVlng
p12
F3.072588280291502
ssVsouthwest
p13
(dp14
Vlat
p15
F50.6367040197085
sVlng
p16
F3.069890319708498
sssVlocation_type
p17
VROOFTOP
p18
ssVaddress_components
p19
(lp20
(dp21
Vlong_name
p22
V2
p23
sVtypes
p24
(lp25
Vstreet_number
p26
asVshort_name
p27
g23
sa(dp28
Vlong_name
p29
VRue des Canonniers
p30
sVtypes
p31
(lp32
Vroute
p33
asVshort_name
p34
VRue des Canonniers
p35
sa(dp36
Vlong_name
p37
VLille
p38
sVtypes
p39
(lp40
Vlocality
p41
aVpolitical
p42
asVshort_name
p43
VLille
p44
sa(dp45
Vlong_name
p46
VNord
p47
sVtypes
p48
(lp49
Vadministrative_area_level_2
p50
aVpolitical
p51
asVshort_name
p52
VNord
p53
sa(dp54
Vlong_name
p55
VHauts-de-France
p56
sVtypes
p57
(lp58
Vadministrative_area_level_1
p59
aVpolitical
p60
asVshort_name
p61
VHauts-de-France
p62
sa(dp63
Vlong_name
p64
VFrance
p65
sVtypes
p66
(lp67
Vcountry
p68
aVpolitical
p69
asVshort_name
p70
VFR
p71
sa(dp72
Vlong_name
p73
V59000
p74
sVtypes
p75
(lp76
Vpostal_code
p77
asVshort_name
p78
V59000
p79
sasVplace_id
p80
VChIJaQKUC3Yqw0cRdMvQ97N9u8I
p81
sVformatted_address
p82
V2 Rue des Canonniers, 59000 Lille, France
p83
sVtypes
p84
(lp85
Vestablishment
p86
aVpoint_of_interest
p87
as.