(dp0
Vgeometry
p1
(dp2
Vlocation
p3
(dp4
Vlat
p5
F48.2088405
sVlng
p6
F16.3771845
ssVviewport
p7
(dp8
Vnortheast
p9
(dp10
Vlat
p11
F48.2101894802915
sVlng
p12
F16.3785334802915
ssVsouthwest
p13
(dp14
Vlat
p15
F48.2074915197085
sVlng
p16
F16.3758355197085
sssVlocation_type
p17
VROOFTOP
p18
ssVaddress_components
p19
(lp20
(dp21
Vlong_name
p22
V2
p23
sVtypes
p24
(lp25
Vstreet_number
p26
asVshort_name
p27
g23
sa(dp28
Vlong_name
p29
VDoktor-Ignaz-Seipel-Platz
p30
sVtypes
p31
(lp32
Vroute
p33
asVshort_name
p34
VDoktor-Ignaz-Seipel-Platz
p35
sa(dp36
Vlong_name
p37
VInnere Stadt
p38
sVtypes
p39
(lp40
Vpolitical
p41
aVsublocality
p42
aVsublocality_level_1
p43
asVshort_name
p44
VInnere Stadt
p45
sa(dp46
Vlong_name
p47
VWien
p48
sVtypes
p49
(lp50
Vlocality
p51
aVpolitical
p52
asVshort_name
p53
VWien
p54
sa(dp55
Vlong_name
p56
VWien
p57
sVtypes
p58
(lp59
Vadministrative_area_level_1
p60
aVpolitical
p61
asVshort_name
p62
VWien
p63
sa(dp64
Vlong_name
p65
VAutriche
p66
sVtypes
p67
(lp68
Vcountry
p69
aVpolitical
p70
asVshort_name
p71
VAT
p72
sa(dp73
Vlong_name
p74
V1010
p75
sVtypes
p76
(lp77
Vpostal_code
p78
asVshort_name
p79
V1010
p80
sasVplace_id
p81
VChIJ2cVu7Z8HbUcR51_cS8HRdXs
p82
sVformatted_address
p83
VDoktor-Ignaz-Seipel-Platz 2, 1010 Wien, Autriche
p84
sVtypes
p85
(lp86
Vestablishment
p87
aVpoint_of_interest
p88
as.