(dp0
Vgeometry
p1
(dp2
Vlocation
p3
(dp4
Vlat
p5
F47.2820804
sVlng
p6
F-1.5160328
ssVviewport
p7
(dp8
Vnortheast
p9
(dp10
Vlat
p11
F47.2834293802915
sVlng
p12
F-1.514683819708498
ssVsouthwest
p13
(dp14
Vlat
p15
F47.2807314197085
sVlng
p16
F-1.517381780291502
sssVlocation_type
p17
VGEOMETRIC_CENTER
p18
ssVformatted_address
p19
VRue Christian Pauc, 44300 Nantes, France
p20
sVplace_id
p21
VChIJCwVuIdbvBUgRI53qUTaBrLk
p22
sVaddress_components
p23
(lp24
(dp25
Vlong_name
p26
VRue Christian Pauc
p27
sVtypes
p28
(lp29
Vroute
p30
asVshort_name
p31
VRue Christian Pauc
p32
sa(dp33
Vlong_name
p34
VNantes
p35
sVtypes
p36
(lp37
Vlocality
p38
aVpolitical
p39
asVshort_name
p40
VNantes
p41
sa(dp42
Vlong_name
p43
VLoire-Atlantique
p44
sVtypes
p45
(lp46
Vadministrative_area_level_2
p47
aVpolitical
p48
asVshort_name
p49
VLoire-Atlantique
p50
sa(dp51
Vlong_name
p52
VPays de la Loire
p53
sVtypes
p54
(lp55
Vadministrative_area_level_1
p56
aVpolitical
p57
asVshort_name
p58
VPays de la Loire
p59
sa(dp60
Vlong_name
p61
VFrance
p62
sVtypes
p63
(lp64
Vcountry
p65
aVpolitical
p66
asVshort_name
p67
VFR
p68
sa(dp69
Vlong_name
p70
V44300
p71
sVtypes
p72
(lp73
Vpostal_code
p74
asVshort_name
p75
V44300
p76
sasVpartial_match
p77
I01
sVtypes
p78
(lp79
Vestablishment
p80
aVpoint_of_interest
p81
aVuniversity
p82
as.