(dp0
Vgeometry
p1
(dp2
Vlocation
p3
(dp4
Vlat
p5
F49.6786156
sVlng
p6
F-112.8601177
ssVviewport
p7
(dp8
Vnortheast
p9
(dp10
Vlat
p11
F49.6799645802915
sVlng
p12
F-112.8587687197085
ssVsouthwest
p13
(dp14
Vlat
p15
F49.6772666197085
sVlng
p16
F-112.8614666802915
sssVlocation_type
p17
VROOFTOP
p18
ssVaddress_components
p19
(lp20
(dp21
Vlong_name
p22
V4401
p23
sVtypes
p24
(lp25
Vstreet_number
p26
asVshort_name
p27
V4401
p28
sa(dp29
Vlong_name
p30
VUniversity Drive West
p31
sVtypes
p32
(lp33
Vroute
p34
asVshort_name
p35
VUniversity Dr W
p36
sa(dp37
Vlong_name
p38
VWest Lethbridge
p39
sVtypes
p40
(lp41
Vneighborhood
p42
aVpolitical
p43
asVshort_name
p44
VWest Lethbridge
p45
sa(dp46
Vlong_name
p47
VLethbridge
p48
sVtypes
p49
(lp50
Vlocality
p51
aVpolitical
p52
asVshort_name
p53
VLethbridge
p54
sa(dp55
Vlong_name
p56
VDivision No. 2
p57
sVtypes
p58
(lp59
Vadministrative_area_level_2
p60
aVpolitical
p61
asVshort_name
p62
VDivision No. 2
p63
sa(dp64
Vlong_name
p65
VAlberta
p66
sVtypes
p67
(lp68
Vadministrative_area_level_1
p69
aVpolitical
p70
asVshort_name
p71
VAB
p72
sa(dp73
Vlong_name
p74
VCanada
p75
sVtypes
p76
(lp77
Vcountry
p78
aVpolitical
p79
asVshort_name
p80
VCA
p81
sa(dp82
Vlong_name
p83
VT1K 6T5
p84
sVtypes
p85
(lp86
Vpostal_code
p87
asVshort_name
p88
VT1K 6T5
p89
sasVplace_id
p90
VChIJGx5DBC2GblMRK4d2uP4OhZA
p91
sVformatted_address
p92
V4401 University Dr W, Lethbridge, AB T1K 6T5, Canada
p93
sVtypes
p94
(lp95
Vestablishment
p96
aVpoint_of_interest
p97
aVuniversity
p98
as.