(dp0
Vgeometry
p1
(dp2
Vlocation
p3
(dp4
Vlat
p5
F48.5790692
sVlng
p6
F7.766454499999999
ssVviewport
p7
(dp8
Vnortheast
p9
(dp10
Vlat
p11
F48.5804181802915
sVlng
p12
F7.767803480291501
ssVsouthwest
p13
(dp14
Vlat
p15
F48.5777202197085
sVlng
p16
F7.765105519708497
sssVlocation_type
p17
VGEOMETRIC_CENTER
p18
ssVaddress_components
p19
(lp20
(dp21
Vlong_name
p22
VStrasbourg
p23
sVtypes
p24
(lp25
Vlocality
p26
aVpolitical
p27
asVshort_name
p28
VStrasbourg
p29
sa(dp30
Vlong_name
p31
VFrance
p32
sVtypes
p33
(lp34
Vcountry
p35
aVpolitical
p36
asVshort_name
p37
VFR
p38
sa(dp39
Vlong_name
p40
V67081
p41
sVtypes
p42
(lp43
Vpostal_code
p44
asVshort_name
p45
V67081
p46
sasVplace_id
p47
VChIJ96mc9QW2lkcRpSi7AZV4nxI
p48
sVformatted_address
p49
V4 Rue Blaise Pascal, 67081 Strasbourg, France
p50
sVtypes
p51
(lp52
Vestablishment
p53
aVpoint_of_interest
p54
aVuniversity
p55
as.