(dp0
Vgeometry
p1
(dp2
Vlocation
p3
(dp4
Vlat
p5
F50.627577
sVlng
p6
F3.126726
ssVviewport
p7
(dp8
Vnortheast
p9
(dp10
Vlat
p11
F50.62892598029151
sVlng
p12
F3.128074980291502
ssVsouthwest
p13
(dp14
Vlat
p15
F50.62622801970851
sVlng
p16
F3.125377019708498
sssVlocation_type
p17
VGEOMETRIC_CENTER
p18
ssVaddress_components
p19
(lp20
(dp21
Vlong_name
p22
VVilleneuve-d'Ascq
p23
sVtypes
p24
(lp25
Vlocality
p26
aVpolitical
p27
asVshort_name
p28
VVilleneuve-d'Ascq
p29
sa(dp30
Vlong_name
p31
VFrance
p32
sVtypes
p33
(lp34
Vcountry
p35
aVpolitical
p36
asVshort_name
p37
VFR
p38
sa(dp39
Vlong_name
p40
V59650
p41
sVtypes
p42
(lp43
Vpostal_code
p44
asVshort_name
p45
V59650
p46
sasVplace_id
p47
VChIJaSnhfjzWwkcRb3zsa1N3dxI
p48
sVformatted_address
p49
VDomaine Universitaire du Pont de Bois, 59650 Villeneuve-d'Ascq, France
p50
sVtypes
p51
(lp52
Vestablishment
p53
aVpoint_of_interest
p54
aVuniversity
p55
as.