(dp0
Vgeometry
p1
(dp2
Vlocation
p3
(dp4
Vlat
p5
F49.4583047
sVlng
p6
F1.0688892
ssVviewport
p7
(dp8
Vnortheast
p9
(dp10
Vlat
p11
F49.4596536802915
sVlng
p12
F1.070238180291502
ssVsouthwest
p13
(dp14
Vlat
p15
F49.4569557197085
sVlng
p16
F1.067540219708498
sssVlocation_type
p17
VROOFTOP
p18
ssVformatted_address
p19
V1 Rue Thomas Becket, 76130 Mont-Saint-Aignan, France
p20
sVplace_id
p21
VChIJQYXcT_Ld4EcRy25Ld2uTWP0
p22
sVaddress_components
p23
(lp24
(dp25
Vlong_name
p26
V1
p27
sVtypes
p28
(lp29
Vstreet_number
p30
asVshort_name
p31
g27
sa(dp32
Vlong_name
p33
VRue Thomas Becket
p34
sVtypes
p35
(lp36
Vroute
p37
asVshort_name
p38
VRue Thomas Becket
p39
sa(dp40
Vlong_name
p41
VMont-Saint-Aignan
p42
sVtypes
p43
(lp44
Vlocality
p45
aVpolitical
p46
asVshort_name
p47
VMont-Saint-Aignan
p48
sa(dp49
Vlong_name
p50
VSeine-Maritime
p51
sVtypes
p52
(lp53
Vadministrative_area_level_2
p54
aVpolitical
p55
asVshort_name
p56
VSeine-Maritime
p57
sa(dp58
Vlong_name
p59
VNormandie
p60
sVtypes
p61
(lp62
Vadministrative_area_level_1
p63
aVpolitical
p64
asVshort_name
p65
VNormandie
p66
sa(dp67
Vlong_name
p68
VFrance
p69
sVtypes
p70
(lp71
Vcountry
p72
aVpolitical
p73
asVshort_name
p74
VFR
p75
sa(dp76
Vlong_name
p77
V76130
p78
sVtypes
p79
(lp80
Vpostal_code
p81
asVshort_name
p82
V76130
p83
sasVpartial_match
p84
I01
sVtypes
p85
(lp86
Vestablishment
p87
aVpoint_of_interest
p88
aVuniversity
p89
as.