(dp0
Vgeometry
p1
(dp2
Vlocation
p3
(dp4
Vlat
p5
F50.63166
sVlng
p6
F3.0751371
ssVviewport
p7
(dp8
Vnortheast
p9
(dp10
Vlat
p11
F50.6330089802915
sVlng
p12
F3.076486080291502
ssVsouthwest
p13
(dp14
Vlat
p15
F50.6303110197085
sVlng
p16
F3.073788119708498
sssVlocation_type
p17
VROOFTOP
p18
ssVformatted_address
p19
V42 Rue Paul Duez, 59000 Lille, France
p20
sVplace_id
p21
VChIJW1Rose0ow0cR9zaLbFnaS-Y
p22
sVaddress_components
p23
(lp24
(dp25
Vlong_name
p26
V42
p27
sVtypes
p28
(lp29
Vstreet_number
p30
asVshort_name
p31
V42
p32
sa(dp33
Vlong_name
p34
VRue Paul Duez
p35
sVtypes
p36
(lp37
Vroute
p38
asVshort_name
p39
VRue Paul Duez
p40
sa(dp41
Vlong_name
p42
VLille
p43
sVtypes
p44
(lp45
Vlocality
p46
aVpolitical
p47
asVshort_name
p48
VLille
p49
sa(dp50
Vlong_name
p51
VNord
p52
sVtypes
p53
(lp54
Vadministrative_area_level_2
p55
aVpolitical
p56
asVshort_name
p57
VNord
p58
sa(dp59
Vlong_name
p60
VHauts-de-France
p61
sVtypes
p62
(lp63
Vadministrative_area_level_1
p64
aVpolitical
p65
asVshort_name
p66
VHauts-de-France
p67
sa(dp68
Vlong_name
p69
VFrance
p70
sVtypes
p71
(lp72
Vcountry
p73
aVpolitical
p74
asVshort_name
p75
VFR
p76
sa(dp77
Vlong_name
p78
V59000
p79
sVtypes
p80
(lp81
Vpostal_code
p82
asVshort_name
p83
V59000
p84
sasVpartial_match
p85
I01
sVtypes
p86
(lp87
Vestablishment
p88
aVpoint_of_interest
p89
aVuniversity
p90
as.