(dp0
Vgeometry
p1
(dp2
Vlocation
p3
(dp4
Vlat
p5
F43.29362099999999
sVlng
p6
F5.358066
ssVviewport
p7
(dp8
Vnortheast
p9
(dp10
Vlat
p11
F43.2949699802915
sVlng
p12
F5.359414980291502
ssVsouthwest
p13
(dp14
Vlat
p15
F43.2922720197085
sVlng
p16
F5.356717019708499
sssVlocation_type
p17
VGEOMETRIC_CENTER
p18
ssVaddress_components
p19
(lp20
(dp21
Vlong_name
p22
VMarseille
p23
sVtypes
p24
(lp25
Vlocality
p26
aVpolitical
p27
asVshort_name
p28
VMarseille
p29
sa(dp30
Vlong_name
p31
VFrance
p32
sVtypes
p33
(lp34
Vcountry
p35
aVpolitical
p36
asVshort_name
p37
VFR
p38
sa(dp39
Vlong_name
p40
V13007
p41
sVtypes
p42
(lp43
Vpostal_code
p44
asVshort_name
p45
V13007
p46
sasVplace_id
p47
VChIJxwDRlrbAyRIRsa_ZcEAurBM
p48
sVformatted_address
p49
VJardin du Pharo, 58 Boulevard Charles Livon, 13007 Marseille, France
p50
sVtypes
p51
(lp52
Vestablishment
p53
aVpoint_of_interest
p54
aVuniversity
p55
as.