(dp0
Vgeometry
p1
(dp2
Vlocation
p3
(dp4
Vlat
p5
F49.4964477
sVlng
p6
F0.1282725
ssVviewport
p7
(dp8
Vnortheast
p9
(dp10
Vlat
p11
F49.4977966802915
sVlng
p12
F0.129621480291502
ssVsouthwest
p13
(dp14
Vlat
p15
F49.4950987197085
sVlng
p16
F0.126923519708498
sssVlocation_type
p17
VROOFTOP
p18
ssVaddress_components
p19
(lp20
(dp21
Vlong_name
p22
V25
p23
sVtypes
p24
(lp25
Vstreet_number
p26
asVshort_name
p27
V25
p28
sa(dp29
Vlong_name
p30
VRue Philippe Lebon
p31
sVtypes
p32
(lp33
Vroute
p34
asVshort_name
p35
VRue Philippe Lebon
p36
sa(dp37
Vlong_name
p38
VLe Havre
p39
sVtypes
p40
(lp41
Vlocality
p42
aVpolitical
p43
asVshort_name
p44
VLe Havre
p45
sa(dp46
Vlong_name
p47
VSeine-Maritime
p48
sVtypes
p49
(lp50
Vadministrative_area_level_2
p51
aVpolitical
p52
asVshort_name
p53
VSeine-Maritime
p54
sa(dp55
Vlong_name
p56
VNormandie
p57
sVtypes
p58
(lp59
Vadministrative_area_level_1
p60
aVpolitical
p61
asVshort_name
p62
VNormandie
p63
sa(dp64
Vlong_name
p65
VFrance
p66
sVtypes
p67
(lp68
Vcountry
p69
aVpolitical
p70
asVshort_name
p71
VFR
p72
sa(dp73
Vlong_name
p74
V76600
p75
sVtypes
p76
(lp77
Vpostal_code
p78
asVshort_name
p79
V76600
p80
sasVplace_id
p81
VChIJRR0dlAcv4EcRM7tTG1M_vwU
p82
sVformatted_address
p83
V25 Rue Philippe Lebon, 76600 Le Havre, France
p84
sVtypes
p85
(lp86
Vestablishment
p87
aVpoint_of_interest
p88
aVuniversity
p89
as.