(dp0
Vgeometry
p1
(dp2
Vlocation_type
p3
VAPPROXIMATE
p4
sVbounds
p5
(dp6
Vnortheast
p7
(dp8
Vlat
p9
F51.1241999
sVlng
p10
F9.6624999
ssVsouthwest
p11
(dp12
Vlat
p13
F41.3253001
sVlng
p14
F-5.5591
sssVviewport
p15
(dp16
Vnortheast
p17
(dp18
Vlat
p19
F51.1241999
sVlng
p20
F9.6624999
ssVsouthwest
p21
(dp22
Vlat
p23
F41.3253001
sVlng
p24
F-5.5591
sssVlocation
p25
(dp26
Vlat
p27
F46.227638
sVlng
p28
F2.213749
sssVaddress_components
p29
(lp30
(dp31
Vlong_name
p32
VFrance
p33
sVtypes
p34
(lp35
Vcountry
p36
aVpolitical
p37
asVshort_name
p38
VFR
p39
sasVplace_id
p40
VChIJMVd4MymgVA0R99lHx5Y__Ws
p41
sVformatted_address
p42
VFrance
p43
sVtypes
p44
(lp45
Vcountry
p46
aVpolitical
p47
as.